; Function Attrs: mustprogress uwtable
define void @_ZNK3gmx12SetPrecision24checkAbilityDependenciesEm(ptr nocapture noundef nonnull readonly align 8 dereferenceable(24) %0, i64 noundef %1) unnamed_addr #2 align 2 personality ptr @__gxx_personality_v0 {
  %3 = alloca %"class.std::__cxx11::basic_string", align 8
  %4 = alloca %"class.std::allocator", align 1
  %5 = alloca %"class.gmx::InconsistentInputError", align 8
  %6 = alloca %"class.gmx::ExceptionInitializer", align 8
  %7 = alloca %"class.gmx::ExceptionInfo", align 8
  %8 = getelementptr inbounds i8, ptr %0, i64 16
  %9 = load i64, ptr %8, align 8
  %10 = and i64 %9, %1
  %11 = icmp eq i64 %10, 0
  br i1 %11, label %12, label %28

12:                                               ; preds = %2
  call void @_ZNSaIcEC1Ev(ptr noundef nonnull align 1 dereferenceable(1) %4) #15
  invoke void @_ZNSt7__cxx1112basic_stringIcSt11char_traitsIcESaIcEEC2IS3_EEPKcRKS3_(ptr noundef nonnull align 8 dereferenceable(32) %3, ptr noundef nonnull @.str, ptr noundef nonnull align 1 dereferenceable(1) %4)
          to label %13 unwind label %20

13:                                               ; preds = %12
  call void @_ZNSaIcED1Ev(ptr noundef nonnull align 1 dereferenceable(1) %4) #15
  %14 = call ptr @__cxa_allocate_exception(i64 24) #15
  %15 = call noundef ptr @_ZNKSt7__cxx1112basic_stringIcSt11char_traitsIcESaIcEE5c_strEv(ptr noundef nonnull align 8 dereferenceable(32) %3) #15
  invoke void @_ZN3gmx20ExceptionInitializerC2EPKc(ptr noundef nonnull align 8 dereferenceable(56) %6, ptr noundef %15)
          to label %16 unwind label %.thread

16:                                               ; preds = %13
  invoke void @_ZN3gmx16GromacsExceptionC2ERKNS_20ExceptionInitializerE(ptr noundef nonnull align 8 dereferenceable(24) %5, ptr noundef nonnull align 8 dereferenceable(56) %6)
          to label %17 unwind label %.thread17

17:                                               ; preds = %16
  store ptr getelementptr inbounds inrange(-16, 32) ({ [6 x ptr] }, ptr @_ZTVN3gmx22InconsistentInputErrorE, i64 0, i32 0, i64 2), ptr %5, align 8
  store ptr getelementptr inbounds inrange(-16, 16) ({ [4 x ptr] }, ptr @_ZTVN3gmx13ExceptionInfoINS_22ExceptionInfoLocation_ENS_13ThrowLocationEEE, i64 0, i32 0, i64 2), ptr %7, align 8
  %18 = getelementptr inbounds i8, ptr %7, i64 8
  store ptr @__PRETTY_FUNCTION__._ZNK3gmx12SetPrecision24checkAbilityDependenciesEm, ptr %18, align 8
  %.sroa.2.0..sroa_idx = getelementptr inbounds i8, ptr %7, i64 16
  store ptr @.str.1, ptr %.sroa.2.0..sroa_idx, align 8
  %.sroa.3.0..sroa_idx = getelementptr inbounds i8, ptr %7, i64 24
  store i32 62, ptr %.sroa.3.0..sroa_idx, align 8
  invoke void @_ZN3gmxlsINS_22InconsistentInputErrorENS_22ExceptionInfoLocation_ENS_13ThrowLocationEEENSt9enable_ifIXsr3std10is_base_ofINS_16GromacsExceptionET_EE5valueES6_E4typeES6_RKNS_13ExceptionInfoIT0_T1_EE(ptr dead_on_unwind writable sret(%"class.gmx::InconsistentInputError") align 8 %14, ptr noundef nonnull %5, ptr noundef nonnull align 8 dereferenceable(32) %7)
          to label %19 unwind label %24

19:                                               ; preds = %17
  invoke void @__cxa_throw(ptr %14, ptr nonnull @_ZTIN3gmx22InconsistentInputErrorE, ptr nonnull @_ZN3gmx22InconsistentInputErrorD2Ev) #16
          to label %30 unwind label %24

20:                                               ; preds = %12
  %21 = landingpad { ptr, i32 }
          cleanup
  call void @_ZNSaIcED1Ev(ptr noundef nonnull align 1 dereferenceable(1) %4) #15
  br label %29

.thread:                                          ; preds = %13
  %22 = landingpad { ptr, i32 }
          cleanup
  br label %26

.thread17:                                        ; preds = %16
  %23 = landingpad { ptr, i32 }
          cleanup
  call void @_ZN3gmx20ExceptionInitializerD2Ev(ptr noundef nonnull align 8 dereferenceable(56) %6) #15
  br label %26

24:                                               ; preds = %17, %19
  %.0 = phi i1 [ false, %19 ], [ true, %17 ]
  %25 = landingpad { ptr, i32 }
          cleanup
  call void @_ZN3gmx8internal14IExceptionInfoD2Ev(ptr noundef nonnull align 8 dereferenceable(8) %7) #15
  call void @_ZN3gmx22InconsistentInputErrorD2Ev(ptr noundef nonnull align 8 dereferenceable(24) %5) #15
  call void @_ZN3gmx20ExceptionInitializerD2Ev(ptr noundef nonnull align 8 dereferenceable(56) %6) #15
  br i1 %.0, label %26, label %27

26:                                               ; preds = %.thread17, %.thread, %24
  %.pn.pn16 = phi { ptr, i32 } [ %22, %.thread ], [ %25, %24 ], [ %23, %.thread17 ]
  call void @__cxa_free_exception(ptr %14) #15
  br label %27

27:                                               ; preds = %26, %24
  %.pn.pn15 = phi { ptr, i32 } [ %.pn.pn16, %26 ], [ %25, %24 ]
  call void @_ZNSt7__cxx1112basic_stringIcSt11char_traitsIcESaIcEED1Ev(ptr noundef nonnull align 8 dereferenceable(32) %3) #15
  br label %29

28:                                               ; preds = %2
  ret void

29:                                               ; preds = %27, %20
  %.pn.pn.pn = phi { ptr, i32 } [ %.pn.pn15, %27 ], [ %21, %20 ]
  resume { ptr, i32 } %.pn.pn.pn

30:                                               ; preds = %19
  unreachable
}